target datalayout = "e-m:e-p270:32:32-p271:32:32-p272:64:64-i64:64-i128:128-f80:128-n8:16:32:64-S128"
target triple = "x86_64-pc-linux-gnu"

%class.QString = type { ptr }
%class.RichParameter = type { ptr, %class.QString, ptr, %class.QString, %class.QString, i8, i8, %class.QString }

; Function Attrs: mustprogress uwtable
define noundef zeroext i1 @_ZN8RichBooleqERK13RichParameter(ptr noundef nonnull align 8 dereferenceable(56) %0, ptr noundef nonnull align 8 dereferenceable(56) %1) unnamed_addr #2 align 2 {
  %3 = alloca ptr, align 8
  %4 = alloca ptr, align 8
  store ptr %0, ptr %3, align 8
  store ptr %1, ptr %4, align 8
  %5 = load ptr, ptr %3, align 8
  %6 = load ptr, ptr %4, align 8
  %7 = call noundef nonnull align 8 dereferenceable(8) ptr @_ZNK13RichParameter5valueEv(ptr noundef nonnull align 8 dereferenceable(56) %6)
  %8 = load ptr, ptr %7, align 8
  %9 = getelementptr inbounds ptr, ptr %8, i64 10
  %10 = load ptr, ptr %9, align 8
  %11 = call noundef zeroext i1 %10(ptr noundef nonnull align 8 dereferenceable(8) %7)
  br i1 %11, label %12, label %32

12:                                               ; preds = %2
  %13 = getelementptr inbounds %class.RichParameter, ptr %5, i32 0, i32 1
  %14 = load ptr, ptr %4, align 8
  %15 = call noundef nonnull align 8 dereferenceable(8) ptr @_ZNK13RichParameter4nameEv(ptr noundef nonnull align 8 dereferenceable(56) %14)
  %16 = call noundef zeroext i1 @_ZeqRK7QStringS1_(ptr noundef nonnull align 8 dereferenceable(8) %13, ptr noundef nonnull align 8 dereferenceable(8) %15) #5
  br i1 %16, label %17, label %32

17:                                               ; preds = %12
  %18 = call noundef nonnull align 8 dereferenceable(8) ptr @_ZNK13RichParameter5valueEv(ptr noundef nonnull align 8 dereferenceable(56) %5)
  %19 = load ptr, ptr %18, align 8
  %20 = getelementptr inbounds ptr, ptr %19, i64 2
  %21 = load ptr, ptr %20, align 8
  %22 = call noundef zeroext i1 %21(ptr noundef nonnull align 8 dereferenceable(8) %18)
  %23 = zext i1 %22 to i32
  %24 = load ptr, ptr %4, align 8
  %25 = call noundef nonnull align 8 dereferenceable(8) ptr @_ZNK13RichParameter5valueEv(ptr noundef nonnull align 8 dereferenceable(56) %24)
  %26 = load ptr, ptr %25, align 8
  %27 = getelementptr inbounds ptr, ptr %26, i64 2
  %28 = load ptr, ptr %27, align 8
  %29 = call noundef zeroext i1 %28(ptr noundef nonnull align 8 dereferenceable(8) %25)
  %30 = zext i1 %29 to i32
  %31 = icmp eq i32 %23, %30
  br label %32

32:                                               ; preds = %17, %12, %2
  %33 = phi i1 [ false, %12 ], [ false, %2 ], [ %31, %17 ]
  ret i1 %33
}